target datalayout = "e-m:e-p270:32:32-p271:32:32-p272:64:64-i64:64-i128:128-f80:128-n8:16:32:64-S128"
target triple = "x86_64-pc-linux-gnu"

@stdout = external global ptr, align 8
@.str.24 = private unnamed_addr constant [8 x i8] c"_out.tt\00", align 1
@.str.25 = private unnamed_addr constant [9 x i8] c"_out.txt\00", align 1
@.str.26 = private unnamed_addr constant [53 x i8] c"The resulting functions are written into file \22%s\22.\0A\00", align 1
@.str.27 = private unnamed_addr constant [38 x i8] c"Using truth tables from file \22%s\22...\0A\00", align 1
@.str.28 = private unnamed_addr constant [36 x i8] c"Unknown canonical form value (%d).\0A\00", align 1

; Function Attrs: nounwind uwtable
define void @Abc_TruthNpnTest(ptr noundef %0, i32 noundef %1, i32 noundef %2, i32 noundef %3, i32 noundef %4, i32 noundef %5) #0 {
  %7 = alloca ptr, align 8
  %8 = alloca i32, align 4
  %9 = alloca i32, align 4
  %10 = alloca i32, align 4
  %11 = alloca i32, align 4
  %12 = alloca i32, align 4
  %13 = alloca ptr, align 8
  %14 = alloca ptr, align 8
  store ptr %0, ptr %7, align 8
  store i32 %1, ptr %8, align 4
  store i32 %2, ptr %9, align 4
  store i32 %3, ptr %10, align 4
  store i32 %4, ptr %11, align 4
  store i32 %5, ptr %12, align 4
  %15 = load ptr, ptr %7, align 8
  %16 = load i32, ptr %9, align 4
  %17 = call ptr @Abc_TtStoreLoad(ptr noundef %15, i32 noundef %16)
  store ptr %17, ptr %13, align 8
  %18 = load ptr, ptr %13, align 8
  %19 = icmp eq ptr %18, null
  br i1 %19, label %20, label %21

20:                                               ; preds = %6
  br label %49

21:                                               ; preds = %6
  %22 = load ptr, ptr %13, align 8
  %23 = load i32, ptr %8, align 4
  %24 = load i32, ptr %12, align 4
  call void @Abc_TruthNpnPerform(ptr noundef %22, i32 noundef %23, i32 noundef %24)
  %25 = load i32, ptr %10, align 4
  %26 = icmp ne i32 %25, 0
  br i1 %26, label %27, label %46

27:                                               ; preds = %21
  %28 = load i32, ptr %11, align 4
  %29 = icmp ne i32 %28, 0
  br i1 %29, label %30, label %33

30:                                               ; preds = %27
  %31 = load ptr, ptr %7, align 8
  %32 = call ptr @Extra_FileNameGenericAppend(ptr noundef %31, ptr noundef @.str.24)
  store ptr %32, ptr %14, align 8
  br label %36

33:                                               ; preds = %27
  %34 = load ptr, ptr %7, align 8
  %35 = call ptr @Extra_FileNameGenericAppend(ptr noundef %34, ptr noundef @.str.25)
  store ptr %35, ptr %14, align 8
  br label %36

36:                                               ; preds = %33, %30
  %37 = load ptr, ptr %14, align 8
  %38 = load ptr, ptr %13, align 8
  %39 = load i32, ptr %11, align 4
  call void @Abc_TtStoreWrite(ptr noundef %37, ptr noundef %38, i32 noundef %39)
  %40 = load i32, ptr %12, align 4
  %41 = icmp ne i32 %40, 0
  br i1 %41, label %42, label %45

42:                                               ; preds = %36
  %43 = load ptr, ptr %14, align 8
  %44 = call i32 (ptr, ...) @printf(ptr noundef @.str.26, ptr noundef %43)
  br label %45

45:                                               ; preds = %42, %36
  br label %46

46:                                               ; preds = %45, %21
  %47 = load ptr, ptr %13, align 8
  %48 = load i32, ptr %9, align 4
  call void @Abc_TtStoreFree(ptr noundef %47, i32 noundef %48)
  br label %49

49:                                               ; preds = %46, %20
  ret void
}

; Function Attrs: nounwind uwtable
define i32 @Abc_NpnTest(ptr noundef %0, i32 noundef %1, i32 noundef %2, i32 noundef %3, i32 noundef %4, i32 noundef %5) #0 {
  %7 = alloca ptr, align 8
  %8 = alloca i32, align 4
  %9 = alloca i32, align 4
  %10 = alloca i32, align 4
  %11 = alloca i32, align 4
  %12 = alloca i32, align 4
  store ptr %0, ptr %7, align 8
  store i32 %1, ptr %8, align 4
  store i32 %2, ptr %9, align 4
  store i32 %3, ptr %10, align 4
  store i32 %4, ptr %11, align 4
  store i32 %5, ptr %12, align 4
  %13 = load i32, ptr %12, align 4
  %14 = icmp ne i32 %13, 0
  br i1 %14, label %15, label %18

15:                                               ; preds = %6
  %16 = load ptr, ptr %7, align 8
  %17 = call i32 (ptr, ...) @printf(ptr noundef @.str.27, ptr noundef %16)
  br label %18

18:                                               ; preds = %15, %6
  %19 = load i32, ptr %8, align 4
  %20 = icmp sge i32 %19, 0
  br i1 %20, label %21, label %31

21:                                               ; preds = %18
  %22 = load i32, ptr %8, align 4
  %23 = icmp sle i32 %22, 12
  br i1 %23, label %24, label %31

24:                                               ; preds = %21
  %25 = load ptr, ptr %7, align 8
  %26 = load i32, ptr %8, align 4
  %27 = load i32, ptr %9, align 4
  %28 = load i32, ptr %10, align 4
  %29 = load i32, ptr %11, align 4
  %30 = load i32, ptr %12, align 4
  call void @Abc_TruthNpnTest(ptr noundef %25, i32 noundef %26, i32 noundef %27, i32 noundef %28, i32 noundef %29, i32 noundef %30)
  br label %34

31:                                               ; preds = %21, %18
  %32 = load i32, ptr %8, align 4
  %33 = call i32 (ptr, ...) @printf(ptr noundef @.str.28, i32 noundef %32)
  br label %34

34:                                               ; preds = %31, %24
  %35 = load ptr, ptr @stdout, align 8
  %36 = call i32 @fflush(ptr noundef %35)
  ret i32 0
}