; Function Attrs: nounwind uwtable
define noundef i32 @Abc_NpnTest(ptr noundef %0, i32 noundef %1, i32 noundef %2, i32 noundef %3, i32 noundef %4, i32 noundef %5) local_unnamed_addr #0 {
  %.not = icmp eq i32 %5, 0
  br i1 %.not, label %9, label %7

7:                                                ; preds = %6
  %8 = tail call i32 (ptr, ...) @printf(ptr noundef nonnull dereferenceable(1) @.str.27, ptr noundef %0)
  br label %9

9:                                                ; preds = %7, %6
  %or.cond = icmp ult i32 %1, 13
  br i1 %or.cond, label %10, label %19

10:                                               ; preds = %9
  %11 = tail call ptr @Abc_TtStoreLoad(ptr noundef %0, i32 noundef %2) #17
  %12 = icmp eq ptr %11, null
  br i1 %12, label %Abc_TruthNpnTest.exit, label %13

13:                                               ; preds = %10
  tail call void @Abc_TruthNpnPerform(ptr noundef nonnull %11, i32 noundef %1, i32 noundef %5)
  %.not.i = icmp eq i32 %3, 0
  br i1 %.not.i, label %18, label %14

14:                                               ; preds = %13
  %.not17.i = icmp eq i32 %4, 0
  %.str.25..str.24.i = select i1 %.not17.i, ptr @.str.25, ptr @.str.24
  %15 = tail call ptr @Extra_FileNameGenericAppend(ptr noundef %0, ptr noundef nonnull %.str.25..str.24.i) #17
  tail call void @Abc_TtStoreWrite(ptr noundef %15, ptr noundef nonnull %11, i32 noundef %4) #17
  br i1 %.not, label %18, label %16

16:                                               ; preds = %14
  %17 = tail call i32 (ptr, ...) @printf(ptr noundef nonnull dereferenceable(1) @.str.26, ptr noundef %15)
  br label %18

18:                                               ; preds = %16, %14, %13
  tail call void @Abc_TtStoreFree(ptr noundef nonnull %11, i32 noundef %2) #17
  br label %Abc_TruthNpnTest.exit

19:                                               ; preds = %9
  %20 = tail call i32 (ptr, ...) @printf(ptr noundef nonnull dereferenceable(1) @.str.28, i32 noundef %1)
  br label %Abc_TruthNpnTest.exit

Abc_TruthNpnTest.exit:                            ; preds = %18, %10, %19
  %21 = load ptr, ptr @stdout, align 8
  %22 = tail call i32 @fflush(ptr noundef %21)
  ret i32 0
}